target datalayout = "e-m:e-p270:32:32-p271:32:32-p272:64:64-i64:64-i128:128-f80:128-n8:16:32:64-S128"
target triple = "x86_64-pc-linux-gnu"

%struct._object = type { %union.anon, ptr }
%union.anon = type { i64 }
%struct._typeobject = type { %struct.PyVarObject, ptr, i64, i64, ptr, i64, ptr, ptr, ptr, ptr, ptr, ptr, ptr, ptr, ptr, ptr, ptr, ptr, ptr, i64, ptr, ptr, ptr, ptr, i64, ptr, ptr, ptr, ptr, ptr, ptr, ptr, ptr, ptr, i64, ptr, ptr, ptr, ptr, ptr, ptr, ptr, ptr, ptr, ptr, ptr, i32, ptr, ptr, i8, i16 }
%struct.PyVarObject = type { %struct._object, i64 }
%struct.elementtreestate = type { ptr, ptr, ptr, ptr, ptr, ptr, ptr, ptr, ptr, ptr, ptr, ptr, ptr, ptr, ptr, ptr, ptr, ptr, ptr }
%struct.PyExpat_CAPI = type { ptr, i32, i32, i32, i32, ptr, ptr, ptr, ptr, ptr, ptr, ptr, ptr, ptr, ptr, ptr, ptr, ptr, ptr, ptr, ptr, ptr, ptr, ptr, ptr }
%struct.XMLParserObject = type { %struct._object, ptr, ptr, ptr, ptr, ptr, ptr, ptr, ptr, ptr, ptr, ptr, ptr, ptr, ptr, ptr }
%struct.Py_buffer = type { ptr, ptr, i64, i64, i32, i32, ptr, ptr, ptr, ptr, ptr }

@_Py_NoneStruct = external global %struct._object, align 8
@PyExc_ValueError = external global ptr, align 8
@PyExc_OverflowError = external global ptr, align 8
@.str.117 = private unnamed_addr constant [28 x i8] c"size does not fit in an int\00", align 1
@.str.118 = private unnamed_addr constant [6 x i8] c"utf-8\00", align 1
@.str.119 = private unnamed_addr constant [35 x i8] c"XMLParser.__init__() wasn't called\00", align 1

; Function Attrs: nounwind uwtable
define internal ptr @expat_parse(ptr noundef %0, ptr noundef %1, ptr noundef %2, i32 noundef %3, i32 noundef %4) #0 {
  %6 = alloca ptr, align 8
  %7 = alloca ptr, align 8
  %8 = alloca ptr, align 8
  %9 = alloca ptr, align 8
  %10 = alloca i32, align 4
  %11 = alloca i32, align 4
  %12 = alloca i32, align 4
  %13 = alloca i32, align 4
  store ptr %0, ptr %7, align 8, !tbaa !8
  store ptr %1, ptr %8, align 8, !tbaa !8
  store ptr %2, ptr %9, align 8, !tbaa !139
  store i32 %3, ptr %10, align 4, !tbaa !13
  store i32 %4, ptr %11, align 4, !tbaa !13
  call void @llvm.lifetime.start.p0(i64 4, ptr %12) #8
  %14 = load ptr, ptr %7, align 8, !tbaa !8
  %15 = getelementptr inbounds nuw %struct.elementtreestate, ptr %14, i32 0, i32 18
  %16 = load ptr, ptr %15, align 8, !tbaa !29
  %17 = getelementptr inbounds nuw %struct.PyExpat_CAPI, ptr %16, i32 0, i32 9
  %18 = load ptr, ptr %17, align 8, !tbaa !181
  %19 = load ptr, ptr %8, align 8, !tbaa !8
  %20 = getelementptr inbounds nuw %struct.XMLParserObject, ptr %19, i32 0, i32 1
  %21 = load ptr, ptr %20, align 8, !tbaa !172
  %22 = load ptr, ptr %9, align 8, !tbaa !139
  %23 = load i32, ptr %10, align 4, !tbaa !13
  %24 = load i32, ptr %11, align 4, !tbaa !13
  %25 = call i32 %18(ptr noundef %21, ptr noundef %22, i32 noundef %23, i32 noundef %24)
  store i32 %25, ptr %12, align 4, !tbaa !13
  %26 = call ptr @PyErr_Occurred()
  %27 = icmp ne ptr %26, null
  br i1 %27, label %28, label %29

28:                                               ; preds = %5
  store ptr null, ptr %6, align 8
  store i32 1, ptr %13, align 4
  br label %62

29:                                               ; preds = %5
  %30 = load i32, ptr %12, align 4, !tbaa !13
  %31 = icmp ne i32 %30, 0
  br i1 %31, label %61, label %32

32:                                               ; preds = %29
  %33 = load ptr, ptr %7, align 8, !tbaa !8
  %34 = load ptr, ptr %7, align 8, !tbaa !8
  %35 = getelementptr inbounds nuw %struct.elementtreestate, ptr %34, i32 0, i32 18
  %36 = load ptr, ptr %35, align 8, !tbaa !29
  %37 = getelementptr inbounds nuw %struct.PyExpat_CAPI, ptr %36, i32 0, i32 6
  %38 = load ptr, ptr %37, align 8, !tbaa !182
  %39 = load ptr, ptr %8, align 8, !tbaa !8
  %40 = getelementptr inbounds nuw %struct.XMLParserObject, ptr %39, i32 0, i32 1
  %41 = load ptr, ptr %40, align 8, !tbaa !172
  %42 = call i32 %38(ptr noundef %41)
  %43 = load ptr, ptr %7, align 8, !tbaa !8
  %44 = getelementptr inbounds nuw %struct.elementtreestate, ptr %43, i32 0, i32 18
  %45 = load ptr, ptr %44, align 8, !tbaa !29
  %46 = getelementptr inbounds nuw %struct.PyExpat_CAPI, ptr %45, i32 0, i32 8
  %47 = load ptr, ptr %46, align 8, !tbaa !183
  %48 = load ptr, ptr %8, align 8, !tbaa !8
  %49 = getelementptr inbounds nuw %struct.XMLParserObject, ptr %48, i32 0, i32 1
  %50 = load ptr, ptr %49, align 8, !tbaa !172
  %51 = call i64 %47(ptr noundef %50)
  %52 = load ptr, ptr %7, align 8, !tbaa !8
  %53 = getelementptr inbounds nuw %struct.elementtreestate, ptr %52, i32 0, i32 18
  %54 = load ptr, ptr %53, align 8, !tbaa !29
  %55 = getelementptr inbounds nuw %struct.PyExpat_CAPI, ptr %54, i32 0, i32 7
  %56 = load ptr, ptr %55, align 8, !tbaa !184
  %57 = load ptr, ptr %8, align 8, !tbaa !8
  %58 = getelementptr inbounds nuw %struct.XMLParserObject, ptr %57, i32 0, i32 1
  %59 = load ptr, ptr %58, align 8, !tbaa !172
  %60 = call i64 %56(ptr noundef %59)
  call void @expat_set_error(ptr noundef %33, i32 noundef %42, i64 noundef %51, i64 noundef %60, ptr noundef null)
  store ptr null, ptr %6, align 8
  store i32 1, ptr %13, align 4
  br label %62

61:                                               ; preds = %29
  store ptr @_Py_NoneStruct, ptr %6, align 8
  store i32 1, ptr %13, align 4
  br label %62

62:                                               ; preds = %61, %32, %28
  call void @llvm.lifetime.end.p0(i64 4, ptr %12) #8
  %63 = load ptr, ptr %6, align 8
  ret ptr %63
}

; Function Attrs: inlinehint nounwind uwtable
define internal i32 @PyType_HasFeature(ptr noundef %0, i64 noundef %1) #3 {
  %3 = alloca ptr, align 8
  %4 = alloca i64, align 8
  %5 = alloca i64, align 8
  store ptr %0, ptr %3, align 8, !tbaa !28
  store i64 %1, ptr %4, align 8, !tbaa !30
  call void @llvm.lifetime.start.p0(i64 8, ptr %5) #8
  %6 = load ptr, ptr %3, align 8, !tbaa !28
  %7 = getelementptr inbounds nuw %struct._typeobject, ptr %6, i32 0, i32 19
  %8 = load i64, ptr %7, align 8, !tbaa !51
  store i64 %8, ptr %5, align 8, !tbaa !30
  %9 = load i64, ptr %5, align 8, !tbaa !30
  %10 = load i64, ptr %4, align 8, !tbaa !30
  %11 = and i64 %9, %10
  %12 = icmp ne i64 %11, 0
  %13 = zext i1 %12 to i32
  call void @llvm.lifetime.end.p0(i64 8, ptr %5) #8
  ret i32 %13
}

; Function Attrs: inlinehint nounwind uwtable
define internal ptr @_Py_TYPE(ptr noundef %0) #3 {
  %2 = alloca ptr, align 8
  store ptr %0, ptr %2, align 8, !tbaa !3
  %3 = load ptr, ptr %2, align 8, !tbaa !3
  %4 = getelementptr inbounds nuw %struct._object, ptr %3, i32 0, i32 1
  %5 = load ptr, ptr %4, align 8, !tbaa !52
  ret ptr %5
}

; Function Attrs: inlinehint nounwind uwtable
define internal i32 @_check_xmlparser(ptr noundef %0) #3 {
  %2 = alloca i32, align 4
  %3 = alloca ptr, align 8
  store ptr %0, ptr %3, align 8, !tbaa !8
  %4 = load ptr, ptr %3, align 8, !tbaa !8
  %5 = getelementptr inbounds nuw %struct.XMLParserObject, ptr %4, i32 0, i32 2
  %6 = load ptr, ptr %5, align 8, !tbaa !168
  %7 = icmp eq ptr %6, null
  br i1 %7, label %8, label %10

8:                                                ; preds = %1
  %9 = load ptr, ptr @PyExc_ValueError, align 8, !tbaa !3
  call void @PyErr_SetString(ptr noundef %9, ptr noundef @.str.119)
  store i32 0, ptr %2, align 4
  br label %11

10:                                               ; preds = %1
  store i32 1, ptr %2, align 4
  br label %11

11:                                               ; preds = %10, %8
  %12 = load i32, ptr %2, align 4
  ret i32 %12
}

; Function Attrs: nounwind uwtable
define internal ptr @_elementtree_XMLParser_feed(ptr noundef %0, ptr noundef %1) #0 {
  %3 = alloca ptr, align 8
  %4 = alloca ptr, align 8
  %5 = alloca ptr, align 8
  %6 = alloca ptr, align 8
  %7 = alloca i64, align 8
  %8 = alloca ptr, align 8
  %9 = alloca i32, align 4
  %10 = alloca %struct.Py_buffer, align 8
  %11 = alloca ptr, align 8
  store ptr %0, ptr %4, align 8, !tbaa !8
  store ptr %1, ptr %5, align 8, !tbaa !3
  %12 = load ptr, ptr %4, align 8, !tbaa !8
  %13 = call i32 @_check_xmlparser(ptr noundef %12)
  %14 = icmp ne i32 %13, 0
  br i1 %14, label %16, label %15

15:                                               ; preds = %2
  store ptr null, ptr %3, align 8
  br label %75

16:                                               ; preds = %2
  call void @llvm.lifetime.start.p0(i64 8, ptr %6) #8
  %17 = load ptr, ptr %4, align 8, !tbaa !8
  %18 = getelementptr inbounds nuw %struct.XMLParserObject, ptr %17, i32 0, i32 14
  %19 = load ptr, ptr %18, align 8, !tbaa !171
  store ptr %19, ptr %6, align 8, !tbaa !8
  %20 = load ptr, ptr %5, align 8, !tbaa !3
  %21 = call ptr @_Py_TYPE(ptr noundef %20)
  %22 = call i32 @PyType_HasFeature(ptr noundef %21, i64 noundef 268435456)
  %23 = icmp ne i32 %22, 0
  br i1 %23, label %24, label %52

24:                                               ; preds = %16
  call void @llvm.lifetime.start.p0(i64 8, ptr %7) #8
  call void @llvm.lifetime.start.p0(i64 8, ptr %8) #8
  %25 = load ptr, ptr %5, align 8, !tbaa !3
  %26 = call ptr @PyUnicode_AsUTF8AndSize(ptr noundef %25, ptr noundef %7)
  store ptr %26, ptr %8, align 8, !tbaa !139
  %27 = load ptr, ptr %8, align 8, !tbaa !139
  %28 = icmp eq ptr %27, null
  br i1 %28, label %29, label %30

29:                                               ; preds = %24
  store ptr null, ptr %3, align 8
  store i32 1, ptr %9, align 4
  br label %51

30:                                               ; preds = %24
  %31 = load i64, ptr %7, align 8, !tbaa !30
  %32 = icmp sgt i64 %31, 2147483647
  br i1 %32, label %33, label %35

33:                                               ; preds = %30
  %34 = load ptr, ptr @PyExc_OverflowError, align 8, !tbaa !3
  call void @PyErr_SetString(ptr noundef %34, ptr noundef @.str.117)
  store ptr null, ptr %3, align 8
  store i32 1, ptr %9, align 4
  br label %51

35:                                               ; preds = %30
  %36 = load ptr, ptr %6, align 8, !tbaa !8
  %37 = getelementptr inbounds nuw %struct.elementtreestate, ptr %36, i32 0, i32 18
  %38 = load ptr, ptr %37, align 8, !tbaa !29
  %39 = getelementptr inbounds nuw %struct.PyExpat_CAPI, ptr %38, i32 0, i32 21
  %40 = load ptr, ptr %39, align 8, !tbaa !176
  %41 = load ptr, ptr %4, align 8, !tbaa !8
  %42 = getelementptr inbounds nuw %struct.XMLParserObject, ptr %41, i32 0, i32 1
  %43 = load ptr, ptr %42, align 8, !tbaa !172
  %44 = call i32 %40(ptr noundef %43, ptr noundef @.str.118)
  %45 = load ptr, ptr %6, align 8, !tbaa !8
  %46 = load ptr, ptr %4, align 8, !tbaa !8
  %47 = load ptr, ptr %8, align 8, !tbaa !139
  %48 = load i64, ptr %7, align 8, !tbaa !30
  %49 = trunc i64 %48 to i32
  %50 = call ptr @expat_parse(ptr noundef %45, ptr noundef %46, ptr noundef %47, i32 noundef %49, i32 noundef 0)
  store ptr %50, ptr %3, align 8
  store i32 1, ptr %9, align 4
  br label %51

51:                                               ; preds = %35, %33, %29
  call void @llvm.lifetime.end.p0(i64 8, ptr %8) #8
  call void @llvm.lifetime.end.p0(i64 8, ptr %7) #8
  br label %74

52:                                               ; preds = %16
  call void @llvm.lifetime.start.p0(i64 80, ptr %10) #8
  call void @llvm.lifetime.start.p0(i64 8, ptr %11) #8
  %53 = load ptr, ptr %5, align 8, !tbaa !3
  %54 = call i32 @PyObject_GetBuffer(ptr noundef %53, ptr noundef %10, i32 noundef 0)
  %55 = icmp slt i32 %54, 0
  br i1 %55, label %56, label %57

56:                                               ; preds = %52
  store ptr null, ptr %3, align 8
  store i32 1, ptr %9, align 4
  br label %73

57:                                               ; preds = %52
  %58 = getelementptr inbounds nuw %struct.Py_buffer, ptr %10, i32 0, i32 2
  %59 = load i64, ptr %58, align 8, !tbaa !177
  %60 = icmp sgt i64 %59, 2147483647
  br i1 %60, label %61, label %63

61:                                               ; preds = %57
  call void @PyBuffer_Release(ptr noundef %10)
  %62 = load ptr, ptr @PyExc_OverflowError, align 8, !tbaa !3
  call void @PyErr_SetString(ptr noundef %62, ptr noundef @.str.117)
  store ptr null, ptr %3, align 8
  store i32 1, ptr %9, align 4
  br label %73

63:                                               ; preds = %57
  %64 = load ptr, ptr %6, align 8, !tbaa !8
  %65 = load ptr, ptr %4, align 8, !tbaa !8
  %66 = getelementptr inbounds nuw %struct.Py_buffer, ptr %10, i32 0, i32 0
  %67 = load ptr, ptr %66, align 8, !tbaa !180
  %68 = getelementptr inbounds nuw %struct.Py_buffer, ptr %10, i32 0, i32 2
  %69 = load i64, ptr %68, align 8, !tbaa !177
  %70 = trunc i64 %69 to i32
  %71 = call ptr @expat_parse(ptr noundef %64, ptr noundef %65, ptr noundef %67, i32 noundef %70, i32 noundef 0)
  store ptr %71, ptr %11, align 8, !tbaa !3
  call void @PyBuffer_Release(ptr noundef %10)
  %72 = load ptr, ptr %11, align 8, !tbaa !3
  store ptr %72, ptr %3, align 8
  store i32 1, ptr %9, align 4
  br label %73

73:                                               ; preds = %63, %61, %56
  call void @llvm.lifetime.end.p0(i64 8, ptr %11) #8
  call void @llvm.lifetime.end.p0(i64 80, ptr %10) #8
  br label %74

74:                                               ; preds = %73, %51
  call void @llvm.lifetime.end.p0(i64 8, ptr %6) #8
  br label %75

75:                                               ; preds = %74, %15
  %76 = load ptr, ptr %3, align 8
  ret ptr %76
}