; Function Attrs: nounwind uwtable
define internal noundef ptr @_elementtree_XMLParser_feed(ptr noundef readonly captures(none) %0, ptr noundef %1) #0 {
  %3 = alloca i64, align 8
  %4 = alloca %struct.Py_buffer, align 8
  %5 = getelementptr i8, ptr %0, i64 24
  %.val19 = load ptr, ptr %5, align 8, !tbaa !162
  %6 = icmp eq ptr %.val19, null
  br i1 %6, label %_check_xmlparser.exit.thread, label %_check_xmlparser.exit

_check_xmlparser.exit.thread:                     ; preds = %2
  %7 = load ptr, ptr @PyExc_ValueError, align 8, !tbaa !20
  tail call void @PyErr_SetString(ptr noundef %7, ptr noundef nonnull @.str.119) #12
  br label %92

_check_xmlparser.exit:                            ; preds = %2
  %8 = getelementptr inbounds nuw i8, ptr %0, i64 120
  %9 = load ptr, ptr %8, align 8, !tbaa !166
  %10 = getelementptr i8, ptr %1, i64 8
  %.val = load ptr, ptr %10, align 8, !tbaa !25
  %11 = getelementptr i8, ptr %.val, i64 168
  %.val18 = load i64, ptr %11, align 8, !tbaa !43
  %12 = and i64 %.val18, 268435456
  %.not17 = icmp eq i64 %12, 0
  br i1 %.not17, label %54, label %13

13:                                               ; preds = %_check_xmlparser.exit
  call void @llvm.lifetime.start.p0(i64 8, ptr nonnull %3) #12
  %14 = call ptr @PyUnicode_AsUTF8AndSize(ptr noundef nonnull %1, ptr noundef nonnull %3) #12
  %15 = icmp eq ptr %14, null
  br i1 %15, label %expat_parse.exit, label %16

16:                                               ; preds = %13
  %17 = load i64, ptr %3, align 8, !tbaa !122
  %18 = icmp sgt i64 %17, 2147483647
  br i1 %18, label %19, label %21

19:                                               ; preds = %16
  %20 = load ptr, ptr @PyExc_OverflowError, align 8, !tbaa !20
  call void @PyErr_SetString(ptr noundef %20, ptr noundef nonnull @.str.117) #12
  br label %expat_parse.exit

21:                                               ; preds = %16
  %22 = getelementptr inbounds nuw i8, ptr %9, i64 144
  %23 = load ptr, ptr %22, align 8, !tbaa !23
  %24 = getelementptr inbounds nuw i8, ptr %23, i64 152
  %25 = load ptr, ptr %24, align 8, !tbaa !181
  %26 = getelementptr inbounds nuw i8, ptr %0, i64 16
  %27 = load ptr, ptr %26, align 8, !tbaa !165
  %28 = call i32 %25(ptr noundef %27, ptr noundef nonnull @.str.118) #12
  %29 = load i64, ptr %3, align 8, !tbaa !122
  %30 = trunc i64 %29 to i32
  %31 = load ptr, ptr %22, align 8, !tbaa !23
  %32 = getelementptr inbounds nuw i8, ptr %31, i64 56
  %33 = load ptr, ptr %32, align 8, !tbaa !182
  %34 = load ptr, ptr %26, align 8, !tbaa !165
  %35 = call i32 %33(ptr noundef %34, ptr noundef nonnull %14, i32 noundef %30, i32 noundef 0) #12
  %36 = call ptr @PyErr_Occurred() #12
  %.not.i = icmp eq ptr %36, null
  br i1 %.not.i, label %37, label %expat_parse.exit

37:                                               ; preds = %21
  %.not13.i = icmp eq i32 %35, 0
  br i1 %.not13.i, label %38, label %expat_parse.exit

38:                                               ; preds = %37
  %39 = load ptr, ptr %22, align 8, !tbaa !23
  %40 = getelementptr inbounds nuw i8, ptr %39, i64 32
  %41 = load ptr, ptr %40, align 8, !tbaa !183
  %42 = load ptr, ptr %26, align 8, !tbaa !165
  %43 = call i32 %41(ptr noundef %42) #12
  %44 = load ptr, ptr %22, align 8, !tbaa !23
  %45 = getelementptr inbounds nuw i8, ptr %44, i64 48
  %46 = load ptr, ptr %45, align 8, !tbaa !184
  %47 = load ptr, ptr %26, align 8, !tbaa !165
  %48 = call i64 %46(ptr noundef %47) #12
  %49 = load ptr, ptr %22, align 8, !tbaa !23
  %50 = getelementptr inbounds nuw i8, ptr %49, i64 40
  %51 = load ptr, ptr %50, align 8, !tbaa !185
  %52 = load ptr, ptr %26, align 8, !tbaa !165
  %53 = call i64 %51(ptr noundef %52) #12
  call fastcc void @expat_set_error(ptr noundef nonnull readonly %9, i32 noundef %43, i64 noundef %48, i64 noundef %53, ptr noundef null)
  br label %expat_parse.exit

expat_parse.exit:                                 ; preds = %38, %37, %21, %13, %19
  %.1 = phi ptr [ null, %19 ], [ null, %13 ], [ null, %38 ], [ null, %21 ], [ @_Py_NoneStruct, %37 ]
  call void @llvm.lifetime.end.p0(i64 8, ptr nonnull %3) #12
  br label %92

54:                                               ; preds = %_check_xmlparser.exit
  call void @llvm.lifetime.start.p0(i64 80, ptr nonnull %4) #12
  %55 = call i32 @PyObject_GetBuffer(ptr noundef nonnull %1, ptr noundef nonnull %4, i32 noundef 0) #12
  %56 = icmp slt i32 %55, 0
  br i1 %56, label %91, label %57

57:                                               ; preds = %54
  %58 = getelementptr inbounds nuw i8, ptr %4, i64 16
  %59 = load i64, ptr %58, align 8, !tbaa !186
  %60 = icmp sgt i64 %59, 2147483647
  br i1 %60, label %61, label %63

61:                                               ; preds = %57
  call void @PyBuffer_Release(ptr noundef nonnull %4) #12
  %62 = load ptr, ptr @PyExc_OverflowError, align 8, !tbaa !20
  call void @PyErr_SetString(ptr noundef %62, ptr noundef nonnull @.str.117) #12
  br label %91

63:                                               ; preds = %57
  %64 = load ptr, ptr %4, align 8, !tbaa !189
  %65 = trunc i64 %59 to i32
  %66 = getelementptr inbounds nuw i8, ptr %9, i64 144
  %67 = load ptr, ptr %66, align 8, !tbaa !23
  %68 = getelementptr inbounds nuw i8, ptr %67, i64 56
  %69 = load ptr, ptr %68, align 8, !tbaa !182
  %70 = getelementptr inbounds nuw i8, ptr %0, i64 16
  %71 = load ptr, ptr %70, align 8, !tbaa !165
  %72 = call i32 %69(ptr noundef %71, ptr noundef %64, i32 noundef %65, i32 noundef 0) #12
  %73 = call ptr @PyErr_Occurred() #12
  %.not.i21 = icmp eq ptr %73, null
  br i1 %.not.i21, label %74, label %expat_parse.exit24

74:                                               ; preds = %63
  %.not13.i23 = icmp eq i32 %72, 0
  br i1 %.not13.i23, label %75, label %expat_parse.exit24

75:                                               ; preds = %74
  %76 = load ptr, ptr %66, align 8, !tbaa !23
  %77 = getelementptr inbounds nuw i8, ptr %76, i64 32
  %78 = load ptr, ptr %77, align 8, !tbaa !183
  %79 = load ptr, ptr %70, align 8, !tbaa !165
  %80 = call i32 %78(ptr noundef %79) #12
  %81 = load ptr, ptr %66, align 8, !tbaa !23
  %82 = getelementptr inbounds nuw i8, ptr %81, i64 48
  %83 = load ptr, ptr %82, align 8, !tbaa !184
  %84 = load ptr, ptr %70, align 8, !tbaa !165
  %85 = call i64 %83(ptr noundef %84) #12
  %86 = load ptr, ptr %66, align 8, !tbaa !23
  %87 = getelementptr inbounds nuw i8, ptr %86, i64 40
  %88 = load ptr, ptr %87, align 8, !tbaa !185
  %89 = load ptr, ptr %70, align 8, !tbaa !165
  %90 = call i64 %88(ptr noundef %89) #12
  call fastcc void @expat_set_error(ptr noundef nonnull readonly %9, i32 noundef %80, i64 noundef %85, i64 noundef %90, ptr noundef null)
  br label %expat_parse.exit24

expat_parse.exit24:                               ; preds = %63, %74, %75
  %.0.i22 = phi ptr [ null, %75 ], [ null, %63 ], [ @_Py_NoneStruct, %74 ]
  call void @PyBuffer_Release(ptr noundef nonnull %4) #12
  br label %91

91:                                               ; preds = %54, %expat_parse.exit24, %61
  %.3 = phi ptr [ null, %61 ], [ %.0.i22, %expat_parse.exit24 ], [ null, %54 ]
  call void @llvm.lifetime.end.p0(i64 80, ptr nonnull %4) #12
  br label %92

92:                                               ; preds = %_check_xmlparser.exit.thread, %expat_parse.exit, %91
  %.0 = phi ptr [ %.1, %expat_parse.exit ], [ %.3, %91 ], [ null, %_check_xmlparser.exit.thread ]
  ret ptr %.0
}